; Function Attrs: nounwind uwtable
define range(i32 0, 2) i32 @ossl_qlog_set_sink_bio(ptr noundef %0, ptr noundef %1) local_unnamed_addr #0 {
  %3 = icmp eq ptr %0, null
  br i1 %3, label %9, label %ossl_qlog_flush.exit

ossl_qlog_flush.exit:                             ; preds = %2
  %4 = getelementptr inbounds nuw i8, ptr %0, i64 152
  %5 = tail call i32 @ossl_json_flush(ptr noundef nonnull %4) #11
  %6 = getelementptr inbounds nuw i8, ptr %0, i64 88
  %7 = load ptr, ptr %6, align 8, !tbaa !37
  tail call void @BIO_free_all(ptr noundef %7) #11
  store ptr %1, ptr %6, align 8, !tbaa !37
  %8 = tail call i32 @ossl_json_set0_sink(ptr noundef nonnull %4, ptr noundef %1) #11
  br label %9

9:                                                ; preds = %2, %ossl_qlog_flush.exit
  %.0 = phi i32 [ 1, %ossl_qlog_flush.exit ], [ 0, %2 ]
  ret i32 %.0
}